target datalayout = "e-m:e-p270:32:32-p271:32:32-p272:64:64-i64:64-i128:128-f80:128-n8:16:32:64-S128"
target triple = "x86_64-unknown-linux-gnu"

%struct.stb_lexer = type { ptr, ptr, ptr, ptr, i32, ptr, ptr, i64, double, i64, ptr, i32 }

; Function Attrs: nounwind uwtable
define i32 @stb__clex_token(ptr noundef %lexer, i32 noundef %token, ptr noundef %start, ptr noundef %end) #0 {
entry:
  %lexer.addr = alloca ptr, align 8
  %token.addr = alloca i32, align 4
  %start.addr = alloca ptr, align 8
  %end.addr = alloca ptr, align 8
  store ptr %lexer, ptr %lexer.addr, align 8
  store i32 %token, ptr %token.addr, align 4
  store ptr %start, ptr %start.addr, align 8
  store ptr %end, ptr %end.addr, align 8
  %0 = load i32, ptr %token.addr, align 4
  %conv = sext i32 %0 to i64
  %1 = load ptr, ptr %lexer.addr, align 8
  %token1 = getelementptr inbounds %struct.stb_lexer, ptr %1, i32 0, i32 7
  store i64 %conv, ptr %token1, align 8
  %2 = load ptr, ptr %start.addr, align 8
  %3 = load ptr, ptr %lexer.addr, align 8
  %where_firstchar = getelementptr inbounds %struct.stb_lexer, ptr %3, i32 0, i32 5
  store ptr %2, ptr %where_firstchar, align 8
  %4 = load ptr, ptr %end.addr, align 8
  %5 = load ptr, ptr %lexer.addr, align 8
  %where_lastchar = getelementptr inbounds %struct.stb_lexer, ptr %5, i32 0, i32 6
  store ptr %4, ptr %where_lastchar, align 8
  %6 = load ptr, ptr %end.addr, align 8
  %add.ptr = getelementptr inbounds i8, ptr %6, i64 1
  %7 = load ptr, ptr %lexer.addr, align 8
  %parse_point = getelementptr inbounds %struct.stb_lexer, ptr %7, i32 0, i32 2
  store ptr %add.ptr, ptr %parse_point, align 8
  ret i32 1
}

; Function Attrs: nounwind uwtable
define i32 @stb__clex_parse_suffixes(ptr noundef %lexer, i64 noundef %tokenid, ptr noundef %start, ptr noundef %cur, ptr noundef %suffixes) #0 {
entry:
  %lexer.addr = alloca ptr, align 8
  %tokenid.addr = alloca i64, align 8
  %start.addr = alloca ptr, align 8
  %cur.addr = alloca ptr, align 8
  %suffixes.addr = alloca ptr, align 8
  store ptr %lexer, ptr %lexer.addr, align 8
  store i64 %tokenid, ptr %tokenid.addr, align 8
  store ptr %start, ptr %start.addr, align 8
  store ptr %cur, ptr %cur.addr, align 8
  store ptr %suffixes, ptr %suffixes.addr, align 8
  %0 = load ptr, ptr %suffixes.addr, align 8
  store ptr %0, ptr %suffixes.addr, align 8
  %1 = load ptr, ptr %lexer.addr, align 8
  %2 = load i64, ptr %tokenid.addr, align 8
  %conv = trunc i64 %2 to i32
  %3 = load ptr, ptr %start.addr, align 8
  %4 = load ptr, ptr %cur.addr, align 8
  %add.ptr = getelementptr inbounds i8, ptr %4, i64 -1
  %call = call i32 @stb__clex_token(ptr noundef %1, i32 noundef %conv, ptr noundef %3, ptr noundef %add.ptr)
  ret i32 %call
}