; Function Attrs: mustprogress nofree norecurse nosync nounwind willreturn memory(argmem: write) uwtable
define noundef i32 @stb__clex_parse_suffixes(ptr noundef writeonly captures(none) initializes((16, 24), (40, 64)) %lexer, i64 noundef %tokenid, ptr noundef %start, ptr noundef %cur, ptr noundef readnone captures(none) %suffixes) local_unnamed_addr #0 {
entry:
  %add.ptr = getelementptr inbounds i8, ptr %cur, i64 -1
  %sext = shl i64 %tokenid, 32
  %conv.i = ashr exact i64 %sext, 32
  %token1.i = getelementptr inbounds nuw i8, ptr %lexer, i64 56
  store i64 %conv.i, ptr %token1.i, align 8
  %where_firstchar.i = getelementptr inbounds nuw i8, ptr %lexer, i64 40
  store ptr %start, ptr %where_firstchar.i, align 8
  %where_lastchar.i = getelementptr inbounds nuw i8, ptr %lexer, i64 48
  store ptr %add.ptr, ptr %where_lastchar.i, align 8
  %parse_point.i = getelementptr inbounds nuw i8, ptr %lexer, i64 16
  store ptr %cur, ptr %parse_point.i, align 8
  ret i32 1
}